target datalayout = "e-m:e-p270:32:32-p271:32:32-p272:64:64-i64:64-i128:128-f80:128-n8:16:32:64-S128"
target triple = "x86_64-pc-linux-gnu"

; Function Attrs: inlinehint nounwind uwtable
define internal void @gf2_matrix_square(ptr noundef %0, ptr noundef %1) #4 {
  %3 = alloca ptr, align 8
  %4 = alloca ptr, align 8
  %5 = alloca i32, align 4
  store ptr %0, ptr %3, align 8, !tbaa !41
  store ptr %1, ptr %4, align 8, !tbaa !41
  call void @llvm.lifetime.start.p0(i64 4, ptr %5) #5
  store i32 0, ptr %5, align 4, !tbaa !4
  br label %6

6:                                                ; preds = %22, %2
  %7 = load i32, ptr %5, align 4, !tbaa !4
  %8 = icmp ult i32 %7, 32
  br i1 %8, label %10, label %9

9:                                                ; preds = %6
  call void @llvm.lifetime.end.p0(i64 4, ptr %5) #5
  br label %25

10:                                               ; preds = %6
  %11 = load ptr, ptr %4, align 8, !tbaa !41
  %12 = load ptr, ptr %4, align 8, !tbaa !41
  %13 = load i32, ptr %5, align 4, !tbaa !4
  %14 = zext i32 %13 to i64
  %15 = getelementptr inbounds nuw i32, ptr %12, i64 %14
  %16 = load i32, ptr %15, align 4, !tbaa !4
  %17 = call i32 @gf2_matrix_times(ptr noundef %11, i32 noundef %16)
  %18 = load ptr, ptr %3, align 8, !tbaa !41
  %19 = load i32, ptr %5, align 4, !tbaa !4
  %20 = zext i32 %19 to i64
  %21 = getelementptr inbounds nuw i32, ptr %18, i64 %20
  store i32 %17, ptr %21, align 4, !tbaa !4
  br label %22

22:                                               ; preds = %10
  %23 = load i32, ptr %5, align 4, !tbaa !4
  %24 = add i32 %23, 1
  store i32 %24, ptr %5, align 4, !tbaa !4
  br label %6, !llvm.loop !48

25:                                               ; preds = %9
  ret void
}

; Function Attrs: inlinehint nounwind uwtable
define internal i32 @gf2_matrix_times(ptr noundef %0, i32 noundef %1) #4 {
  %3 = alloca ptr, align 8
  %4 = alloca i32, align 4
  %5 = alloca i32, align 4
  store ptr %0, ptr %3, align 8, !tbaa !41
  store i32 %1, ptr %4, align 4, !tbaa !4
  call void @llvm.lifetime.start.p0(i64 4, ptr %5) #5
  store i32 0, ptr %5, align 4, !tbaa !4
  br label %6

6:                                                ; preds = %18, %2
  %7 = load i32, ptr %4, align 4, !tbaa !4
  %8 = icmp ne i32 %7, 0
  br i1 %8, label %9, label %23

9:                                                ; preds = %6
  %10 = load i32, ptr %4, align 4, !tbaa !4
  %11 = and i32 %10, 1
  %12 = icmp ne i32 %11, 0
  br i1 %12, label %13, label %18

13:                                               ; preds = %9
  %14 = load ptr, ptr %3, align 8, !tbaa !41
  %15 = load i32, ptr %14, align 4, !tbaa !4
  %16 = load i32, ptr %5, align 4, !tbaa !4
  %17 = xor i32 %16, %15
  store i32 %17, ptr %5, align 4, !tbaa !4
  br label %18

18:                                               ; preds = %13, %9
  %19 = load i32, ptr %4, align 4, !tbaa !4
  %20 = lshr i32 %19, 1
  store i32 %20, ptr %4, align 4, !tbaa !4
  %21 = load ptr, ptr %3, align 8, !tbaa !41
  %22 = getelementptr inbounds nuw i32, ptr %21, i32 1
  store ptr %22, ptr %3, align 8, !tbaa !41
  br label %6, !llvm.loop !47

23:                                               ; preds = %6
  %24 = load i32, ptr %5, align 4, !tbaa !4
  call void @llvm.lifetime.end.p0(i64 4, ptr %5) #5
  ret i32 %24
}

; Function Attrs: nounwind uwtable
define internal void @crc32c_zeros_op(ptr noundef %0, i64 noundef %1) #0 {
  %3 = alloca ptr, align 8
  %4 = alloca i64, align 8
  %5 = alloca [32 x i32], align 16
  %6 = alloca i32, align 4
  %7 = alloca i32, align 4
  %8 = alloca i32, align 4
  %9 = alloca i32, align 4
  store ptr %0, ptr %3, align 8, !tbaa !41
  store i64 %1, ptr %4, align 8, !tbaa !11
  call void @llvm.lifetime.start.p0(i64 128, ptr %5) #5
  %10 = getelementptr inbounds [32 x i32], ptr %5, i64 0, i64 0
  store i32 -2097792136, ptr %10, align 16, !tbaa !4
  call void @llvm.lifetime.start.p0(i64 4, ptr %6) #5
  store i32 1, ptr %6, align 4, !tbaa !4
  call void @llvm.lifetime.start.p0(i64 4, ptr %7) #5
  store i32 1, ptr %7, align 4, !tbaa !4
  br label %11

11:                                               ; preds = %22, %2
  %12 = load i32, ptr %7, align 4, !tbaa !4
  %13 = icmp ult i32 %12, 32
  br i1 %13, label %15, label %14

14:                                               ; preds = %11
  call void @llvm.lifetime.end.p0(i64 4, ptr %7) #5
  br label %25

15:                                               ; preds = %11
  %16 = load i32, ptr %6, align 4, !tbaa !4
  %17 = load i32, ptr %7, align 4, !tbaa !4
  %18 = zext i32 %17 to i64
  %19 = getelementptr inbounds nuw [32 x i32], ptr %5, i64 0, i64 %18
  store i32 %16, ptr %19, align 4, !tbaa !4
  %20 = load i32, ptr %6, align 4, !tbaa !4
  %21 = shl i32 %20, 1
  store i32 %21, ptr %6, align 4, !tbaa !4
  br label %22

22:                                               ; preds = %15
  %23 = load i32, ptr %7, align 4, !tbaa !4
  %24 = add i32 %23, 1
  store i32 %24, ptr %7, align 4, !tbaa !4
  br label %11, !llvm.loop !44

25:                                               ; preds = %14
  %26 = load ptr, ptr %3, align 8, !tbaa !41
  %27 = getelementptr inbounds [32 x i32], ptr %5, i64 0, i64 0
  call void @gf2_matrix_square(ptr noundef %26, ptr noundef %27)
  %28 = getelementptr inbounds [32 x i32], ptr %5, i64 0, i64 0
  %29 = load ptr, ptr %3, align 8, !tbaa !41
  call void @gf2_matrix_square(ptr noundef %28, ptr noundef %29)
  br label %30

30:                                               ; preds = %43, %25
  %31 = load ptr, ptr %3, align 8, !tbaa !41
  %32 = getelementptr inbounds [32 x i32], ptr %5, i64 0, i64 0
  call void @gf2_matrix_square(ptr noundef %31, ptr noundef %32)
  %33 = load i64, ptr %4, align 8, !tbaa !11
  %34 = lshr i64 %33, 1
  store i64 %34, ptr %4, align 8, !tbaa !11
  %35 = load i64, ptr %4, align 8, !tbaa !11
  %36 = icmp eq i64 %35, 0
  br i1 %36, label %37, label %38

37:                                               ; preds = %30
  store i32 1, ptr %8, align 4
  br label %64

38:                                               ; preds = %30
  %39 = getelementptr inbounds [32 x i32], ptr %5, i64 0, i64 0
  %40 = load ptr, ptr %3, align 8, !tbaa !41
  call void @gf2_matrix_square(ptr noundef %39, ptr noundef %40)
  %41 = load i64, ptr %4, align 8, !tbaa !11
  %42 = lshr i64 %41, 1
  store i64 %42, ptr %4, align 8, !tbaa !11
  br label %43

43:                                               ; preds = %38
  %44 = load i64, ptr %4, align 8, !tbaa !11
  %45 = icmp ne i64 %44, 0
  br i1 %45, label %30, label %46, !llvm.loop !45

46:                                               ; preds = %43
  call void @llvm.lifetime.start.p0(i64 4, ptr %9) #5
  store i32 0, ptr %9, align 4, !tbaa !4
  br label %47

47:                                               ; preds = %60, %46
  %48 = load i32, ptr %9, align 4, !tbaa !4
  %49 = icmp ult i32 %48, 32
  br i1 %49, label %51, label %50

50:                                               ; preds = %47
  store i32 7, ptr %8, align 4
  call void @llvm.lifetime.end.p0(i64 4, ptr %9) #5
  br label %63

51:                                               ; preds = %47
  %52 = load i32, ptr %9, align 4, !tbaa !4
  %53 = zext i32 %52 to i64
  %54 = getelementptr inbounds nuw [32 x i32], ptr %5, i64 0, i64 %53
  %55 = load i32, ptr %54, align 4, !tbaa !4
  %56 = load ptr, ptr %3, align 8, !tbaa !41
  %57 = load i32, ptr %9, align 4, !tbaa !4
  %58 = zext i32 %57 to i64
  %59 = getelementptr inbounds nuw i32, ptr %56, i64 %58
  store i32 %55, ptr %59, align 4, !tbaa !4
  br label %60

60:                                               ; preds = %51
  %61 = load i32, ptr %9, align 4, !tbaa !4
  %62 = add i32 %61, 1
  store i32 %62, ptr %9, align 4, !tbaa !4
  br label %47, !llvm.loop !46

63:                                               ; preds = %50
  store i32 0, ptr %8, align 4
  br label %64

64:                                               ; preds = %63, %37
  call void @llvm.lifetime.end.p0(i64 4, ptr %6) #5
  call void @llvm.lifetime.end.p0(i64 128, ptr %5) #5
  %65 = load i32, ptr %8, align 4
  switch i32 %65, label %67 [
    i32 0, label %66
    i32 1, label %66
  ]

66:                                               ; preds = %64, %64
  ret void

67:                                               ; preds = %64
  unreachable
}

; Function Attrs: nounwind uwtable
define internal void @crc32c_zeros(ptr noundef %0, i64 noundef %1) #0 {
  %3 = alloca ptr, align 8
  %4 = alloca i64, align 8
  %5 = alloca [32 x i32], align 16
  %6 = alloca i32, align 4
  store ptr %0, ptr %3, align 8, !tbaa !41
  store i64 %1, ptr %4, align 8, !tbaa !11
  call void @llvm.lifetime.start.p0(i64 128, ptr %5) #5
  %7 = getelementptr inbounds [32 x i32], ptr %5, i64 0, i64 0
  %8 = load i64, ptr %4, align 8, !tbaa !11
  call void @crc32c_zeros_op(ptr noundef %7, i64 noundef %8)
  call void @llvm.lifetime.start.p0(i64 4, ptr %6) #5
  store i32 0, ptr %6, align 4, !tbaa !4
  br label %9

9:                                                ; preds = %49, %2
  %10 = load i32, ptr %6, align 4, !tbaa !4
  %11 = icmp ult i32 %10, 256
  br i1 %11, label %13, label %12

12:                                               ; preds = %9
  call void @llvm.lifetime.end.p0(i64 4, ptr %6) #5
  br label %52

13:                                               ; preds = %9
  %14 = getelementptr inbounds [32 x i32], ptr %5, i64 0, i64 0
  %15 = load i32, ptr %6, align 4, !tbaa !4
  %16 = call i32 @gf2_matrix_times(ptr noundef %14, i32 noundef %15)
  %17 = load ptr, ptr %3, align 8, !tbaa !41
  %18 = getelementptr inbounds [256 x i32], ptr %17, i64 0
  %19 = load i32, ptr %6, align 4, !tbaa !4
  %20 = zext i32 %19 to i64
  %21 = getelementptr inbounds nuw [256 x i32], ptr %18, i64 0, i64 %20
  store i32 %16, ptr %21, align 4, !tbaa !4
  %22 = getelementptr inbounds [32 x i32], ptr %5, i64 0, i64 0
  %23 = load i32, ptr %6, align 4, !tbaa !4
  %24 = shl i32 %23, 8
  %25 = call i32 @gf2_matrix_times(ptr noundef %22, i32 noundef %24)
  %26 = load ptr, ptr %3, align 8, !tbaa !41
  %27 = getelementptr inbounds [256 x i32], ptr %26, i64 1
  %28 = load i32, ptr %6, align 4, !tbaa !4
  %29 = zext i32 %28 to i64
  %30 = getelementptr inbounds nuw [256 x i32], ptr %27, i64 0, i64 %29
  store i32 %25, ptr %30, align 4, !tbaa !4
  %31 = getelementptr inbounds [32 x i32], ptr %5, i64 0, i64 0
  %32 = load i32, ptr %6, align 4, !tbaa !4
  %33 = shl i32 %32, 16
  %34 = call i32 @gf2_matrix_times(ptr noundef %31, i32 noundef %33)
  %35 = load ptr, ptr %3, align 8, !tbaa !41
  %36 = getelementptr inbounds [256 x i32], ptr %35, i64 2
  %37 = load i32, ptr %6, align 4, !tbaa !4
  %38 = zext i32 %37 to i64
  %39 = getelementptr inbounds nuw [256 x i32], ptr %36, i64 0, i64 %38
  store i32 %34, ptr %39, align 4, !tbaa !4
  %40 = getelementptr inbounds [32 x i32], ptr %5, i64 0, i64 0
  %41 = load i32, ptr %6, align 4, !tbaa !4
  %42 = shl i32 %41, 24
  %43 = call i32 @gf2_matrix_times(ptr noundef %40, i32 noundef %42)
  %44 = load ptr, ptr %3, align 8, !tbaa !41
  %45 = getelementptr inbounds [256 x i32], ptr %44, i64 3
  %46 = load i32, ptr %6, align 4, !tbaa !4
  %47 = zext i32 %46 to i64
  %48 = getelementptr inbounds nuw [256 x i32], ptr %45, i64 0, i64 %47
  store i32 %43, ptr %48, align 4, !tbaa !4
  br label %49

49:                                               ; preds = %13
  %50 = load i32, ptr %6, align 4, !tbaa !4
  %51 = add i32 %50, 1
  store i32 %51, ptr %6, align 4, !tbaa !4
  br label %9, !llvm.loop !43

52:                                               ; preds = %12
  call void @llvm.lifetime.end.p0(i64 128, ptr %5) #5
  ret void
}