; Function Attrs: nofree norecurse nosync nounwind memory(argmem: write) uwtable
define internal fastcc void @crc32c_zeros(ptr noundef writeonly captures(none) %0, i64 noundef range(i64 256, 8193) %1) unnamed_addr #7 {
  %3 = alloca [32 x i32], align 16
  %4 = alloca [32 x i32], align 16
  call void @llvm.lifetime.start.p0(i64 128, ptr nonnull %4) #10
  call void @llvm.lifetime.start.p0(i64 128, ptr nonnull %3) #10
  store i32 -2097792136, ptr %3, align 16, !tbaa !14
  br label %25

.preheader65.i:                                   ; preds = %25, %gf2_matrix_times.exit.i.i
  %indvars.iv.i.i = phi i64 [ %indvars.iv.next.i.i, %gf2_matrix_times.exit.i.i ], [ 0, %25 ]
  %5 = getelementptr inbounds nuw i32, ptr %3, i64 %indvars.iv.i.i
  %6 = load i32, ptr %5, align 4, !tbaa !14
  %.not9.i.i.i = icmp eq i32 %6, 0
  br i1 %.not9.i.i.i, label %gf2_matrix_times.exit.i.i, label %.lr.ph.i.i.i

.lr.ph.i.i.i:                                     ; preds = %.preheader65.i, %11
  %.012.i.i.i = phi i32 [ %.1.i.i.i, %11 ], [ 0, %.preheader65.i ]
  %.0611.i.i.i = phi i32 [ %12, %11 ], [ %6, %.preheader65.i ]
  %.0710.i.i.i = phi ptr [ %13, %11 ], [ %3, %.preheader65.i ]
  %7 = and i32 %.0611.i.i.i, 1
  %.not8.i.i.i = icmp eq i32 %7, 0
  br i1 %.not8.i.i.i, label %11, label %8

8:                                                ; preds = %.lr.ph.i.i.i
  %9 = load i32, ptr %.0710.i.i.i, align 4, !tbaa !14
  %10 = xor i32 %9, %.012.i.i.i
  br label %11

11:                                               ; preds = %8, %.lr.ph.i.i.i
  %.1.i.i.i = phi i32 [ %10, %8 ], [ %.012.i.i.i, %.lr.ph.i.i.i ]
  %12 = lshr i32 %.0611.i.i.i, 1
  %13 = getelementptr inbounds nuw i8, ptr %.0710.i.i.i, i64 4
  %.not.i.i.i = icmp ult i32 %.0611.i.i.i, 2
  br i1 %.not.i.i.i, label %gf2_matrix_times.exit.i.i, label %.lr.ph.i.i.i, !llvm.loop !39

gf2_matrix_times.exit.i.i:                        ; preds = %11, %.preheader65.i
  %.0.lcssa.i.i.i = phi i32 [ 0, %.preheader65.i ], [ %.1.i.i.i, %11 ]
  %14 = getelementptr inbounds nuw i32, ptr %4, i64 %indvars.iv.i.i
  store i32 %.0.lcssa.i.i.i, ptr %14, align 4, !tbaa !14
  %indvars.iv.next.i.i = add nuw nsw i64 %indvars.iv.i.i, 1
  %exitcond.not.i.i = icmp eq i64 %indvars.iv.next.i.i, 32
  br i1 %exitcond.not.i.i, label %gf2_matrix_square.exit.i, label %.preheader65.i, !llvm.loop !40

gf2_matrix_square.exit.i:                         ; preds = %gf2_matrix_times.exit.i.i, %gf2_matrix_times.exit.i31.i
  %indvars.iv.i22.i = phi i64 [ %indvars.iv.next.i33.i, %gf2_matrix_times.exit.i31.i ], [ 0, %gf2_matrix_times.exit.i.i ]
  %15 = getelementptr inbounds nuw i32, ptr %4, i64 %indvars.iv.i22.i
  %16 = load i32, ptr %15, align 4, !tbaa !14
  %.not9.i.i23.i = icmp eq i32 %16, 0
  br i1 %.not9.i.i23.i, label %gf2_matrix_times.exit.i31.i, label %.lr.ph.i.i24.i

.lr.ph.i.i24.i:                                   ; preds = %gf2_matrix_square.exit.i, %21
  %.012.i.i25.i = phi i32 [ %.1.i.i29.i, %21 ], [ 0, %gf2_matrix_square.exit.i ]
  %.0611.i.i26.i = phi i32 [ %22, %21 ], [ %16, %gf2_matrix_square.exit.i ]
  %.0710.i.i27.i = phi ptr [ %23, %21 ], [ %4, %gf2_matrix_square.exit.i ]
  %17 = and i32 %.0611.i.i26.i, 1
  %.not8.i.i28.i = icmp eq i32 %17, 0
  br i1 %.not8.i.i28.i, label %21, label %18

18:                                               ; preds = %.lr.ph.i.i24.i
  %19 = load i32, ptr %.0710.i.i27.i, align 4, !tbaa !14
  %20 = xor i32 %19, %.012.i.i25.i
  br label %21

21:                                               ; preds = %18, %.lr.ph.i.i24.i
  %.1.i.i29.i = phi i32 [ %20, %18 ], [ %.012.i.i25.i, %.lr.ph.i.i24.i ]
  %22 = lshr i32 %.0611.i.i26.i, 1
  %23 = getelementptr inbounds nuw i8, ptr %.0710.i.i27.i, i64 4
  %.not.i.i30.i = icmp ult i32 %.0611.i.i26.i, 2
  br i1 %.not.i.i30.i, label %gf2_matrix_times.exit.i31.i, label %.lr.ph.i.i24.i, !llvm.loop !39

gf2_matrix_times.exit.i31.i:                      ; preds = %21, %gf2_matrix_square.exit.i
  %.0.lcssa.i.i32.i = phi i32 [ 0, %gf2_matrix_square.exit.i ], [ %.1.i.i29.i, %21 ]
  %24 = getelementptr inbounds nuw i32, ptr %3, i64 %indvars.iv.i22.i
  store i32 %.0.lcssa.i.i32.i, ptr %24, align 4, !tbaa !14
  %indvars.iv.next.i33.i = add nuw nsw i64 %indvars.iv.i22.i, 1
  %exitcond.not.i34.i = icmp eq i64 %indvars.iv.next.i33.i, 32
  br i1 %exitcond.not.i34.i, label %gf2_matrix_square.exit35.i, label %gf2_matrix_square.exit.i, !llvm.loop !40

25:                                               ; preds = %25, %2
  %indvars.iv.i = phi i64 [ 1, %2 ], [ %indvars.iv.next.i, %25 ]
  %.01866.i = phi i32 [ 1, %2 ], [ %27, %25 ]
  %26 = getelementptr inbounds nuw [32 x i32], ptr %3, i64 0, i64 %indvars.iv.i
  store i32 %.01866.i, ptr %26, align 4, !tbaa !14
  %27 = shl i32 %.01866.i, 1
  %indvars.iv.next.i = add nuw nsw i64 %indvars.iv.i, 1
  %exitcond.not.i = icmp eq i64 %indvars.iv.next.i, 32
  br i1 %exitcond.not.i, label %.preheader65.i, label %25, !llvm.loop !41

gf2_matrix_square.exit35.i:                       ; preds = %gf2_matrix_times.exit.i31.i, %gf2_matrix_square.exit63.i
  %.019.i = phi i64 [ %50, %gf2_matrix_square.exit63.i ], [ %1, %gf2_matrix_times.exit.i31.i ]
  br label %28

28:                                               ; preds = %gf2_matrix_times.exit.i45.i, %gf2_matrix_square.exit35.i
  %indvars.iv.i36.i = phi i64 [ 0, %gf2_matrix_square.exit35.i ], [ %indvars.iv.next.i47.i, %gf2_matrix_times.exit.i45.i ]
  %29 = getelementptr inbounds nuw i32, ptr %3, i64 %indvars.iv.i36.i
  %30 = load i32, ptr %29, align 4, !tbaa !14
  %.not9.i.i37.i = icmp eq i32 %30, 0
  br i1 %.not9.i.i37.i, label %gf2_matrix_times.exit.i45.i, label %.lr.ph.i.i38.i

.lr.ph.i.i38.i:                                   ; preds = %28, %35
  %.012.i.i39.i = phi i32 [ %.1.i.i43.i, %35 ], [ 0, %28 ]
  %.0611.i.i40.i = phi i32 [ %36, %35 ], [ %30, %28 ]
  %.0710.i.i41.i = phi ptr [ %37, %35 ], [ %3, %28 ]
  %31 = and i32 %.0611.i.i40.i, 1
  %.not8.i.i42.i = icmp eq i32 %31, 0
  br i1 %.not8.i.i42.i, label %35, label %32

32:                                               ; preds = %.lr.ph.i.i38.i
  %33 = load i32, ptr %.0710.i.i41.i, align 4, !tbaa !14
  %34 = xor i32 %33, %.012.i.i39.i
  br label %35

35:                                               ; preds = %32, %.lr.ph.i.i38.i
  %.1.i.i43.i = phi i32 [ %34, %32 ], [ %.012.i.i39.i, %.lr.ph.i.i38.i ]
  %36 = lshr i32 %.0611.i.i40.i, 1
  %37 = getelementptr inbounds nuw i8, ptr %.0710.i.i41.i, i64 4
  %.not.i.i44.i = icmp ult i32 %.0611.i.i40.i, 2
  br i1 %.not.i.i44.i, label %gf2_matrix_times.exit.i45.i, label %.lr.ph.i.i38.i, !llvm.loop !39

gf2_matrix_times.exit.i45.i:                      ; preds = %35, %28
  %.0.lcssa.i.i46.i = phi i32 [ 0, %28 ], [ %.1.i.i43.i, %35 ]
  %38 = getelementptr inbounds nuw i32, ptr %4, i64 %indvars.iv.i36.i
  store i32 %.0.lcssa.i.i46.i, ptr %38, align 4, !tbaa !14
  %indvars.iv.next.i47.i = add nuw nsw i64 %indvars.iv.i36.i, 1
  %exitcond.not.i48.i = icmp eq i64 %indvars.iv.next.i47.i, 32
  br i1 %exitcond.not.i48.i, label %gf2_matrix_square.exit49.i, label %28, !llvm.loop !40

gf2_matrix_square.exit49.i:                       ; preds = %gf2_matrix_times.exit.i45.i
  %39 = icmp samesign ult i64 %.019.i, 2
  br i1 %39, label %crc32c_zeros_op.exit, label %.preheader

.preheader:                                       ; preds = %gf2_matrix_square.exit49.i, %gf2_matrix_times.exit.i59.i
  %indvars.iv.i50.i = phi i64 [ %indvars.iv.next.i61.i, %gf2_matrix_times.exit.i59.i ], [ 0, %gf2_matrix_square.exit49.i ]
  %40 = getelementptr inbounds nuw i32, ptr %4, i64 %indvars.iv.i50.i
  %41 = load i32, ptr %40, align 4, !tbaa !14
  %.not9.i.i51.i = icmp eq i32 %41, 0
  br i1 %.not9.i.i51.i, label %gf2_matrix_times.exit.i59.i, label %.lr.ph.i.i52.i

.lr.ph.i.i52.i:                                   ; preds = %.preheader, %46
  %.012.i.i53.i = phi i32 [ %.1.i.i57.i, %46 ], [ 0, %.preheader ]
  %.0611.i.i54.i = phi i32 [ %47, %46 ], [ %41, %.preheader ]
  %.0710.i.i55.i = phi ptr [ %48, %46 ], [ %4, %.preheader ]
  %42 = and i32 %.0611.i.i54.i, 1
  %.not8.i.i56.i = icmp eq i32 %42, 0
  br i1 %.not8.i.i56.i, label %46, label %43

43:                                               ; preds = %.lr.ph.i.i52.i
  %44 = load i32, ptr %.0710.i.i55.i, align 4, !tbaa !14
  %45 = xor i32 %44, %.012.i.i53.i
  br label %46

46:                                               ; preds = %43, %.lr.ph.i.i52.i
  %.1.i.i57.i = phi i32 [ %45, %43 ], [ %.012.i.i53.i, %.lr.ph.i.i52.i ]
  %47 = lshr i32 %.0611.i.i54.i, 1
  %48 = getelementptr inbounds nuw i8, ptr %.0710.i.i55.i, i64 4
  %.not.i.i58.i = icmp ult i32 %.0611.i.i54.i, 2
  br i1 %.not.i.i58.i, label %gf2_matrix_times.exit.i59.i, label %.lr.ph.i.i52.i, !llvm.loop !39

gf2_matrix_times.exit.i59.i:                      ; preds = %46, %.preheader
  %.0.lcssa.i.i60.i = phi i32 [ 0, %.preheader ], [ %.1.i.i57.i, %46 ]
  %49 = getelementptr inbounds nuw i32, ptr %3, i64 %indvars.iv.i50.i
  store i32 %.0.lcssa.i.i60.i, ptr %49, align 4, !tbaa !14
  %indvars.iv.next.i61.i = add nuw nsw i64 %indvars.iv.i50.i, 1
  %exitcond.not.i62.i = icmp eq i64 %indvars.iv.next.i61.i, 32
  br i1 %exitcond.not.i62.i, label %gf2_matrix_square.exit63.i, label %.preheader, !llvm.loop !40

gf2_matrix_square.exit63.i:                       ; preds = %gf2_matrix_times.exit.i59.i
  %50 = lshr i64 %.019.i, 2
  %.not.i = icmp samesign ult i64 %.019.i, 4
  br i1 %.not.i, label %.preheader.preheader.i, label %gf2_matrix_square.exit35.i, !llvm.loop !42

.preheader.preheader.i:                           ; preds = %gf2_matrix_square.exit63.i
  call void @llvm.memcpy.p0.p0.i64(ptr noundef nonnull align 16 dereferenceable(128) %4, ptr noundef nonnull align 16 dereferenceable(128) %3, i64 128, i1 false), !tbaa !14
  br label %crc32c_zeros_op.exit

crc32c_zeros_op.exit:                             ; preds = %gf2_matrix_square.exit49.i, %.preheader.preheader.i
  call void @llvm.lifetime.end.p0(i64 128, ptr nonnull %3) #10
  %51 = getelementptr inbounds nuw i8, ptr %0, i64 3072
  %52 = getelementptr inbounds nuw i8, ptr %0, i64 1024
  %53 = getelementptr inbounds nuw i8, ptr %0, i64 2048
  br label %55

54:                                               ; preds = %gf2_matrix_times.exit44
  call void @llvm.lifetime.end.p0(i64 128, ptr nonnull %4) #10
  ret void

55:                                               ; preds = %crc32c_zeros_op.exit, %gf2_matrix_times.exit44
  %indvars.iv = phi i64 [ 0, %crc32c_zeros_op.exit ], [ %indvars.iv.next, %gf2_matrix_times.exit44 ]
  %.not9.i = icmp eq i64 %indvars.iv, 0
  br i1 %.not9.i, label %gf2_matrix_times.exit34.thread, label %.lr.ph.i.preheader

.lr.ph.i.preheader:                               ; preds = %55
  %56 = trunc nuw nsw i64 %indvars.iv to i32
  br label %.lr.ph.i

gf2_matrix_times.exit34.thread:                   ; preds = %55
  store i32 0, ptr %0, align 4, !tbaa !14
  store i32 0, ptr %52, align 4, !tbaa !14
  store i32 0, ptr %53, align 4, !tbaa !14
  br label %gf2_matrix_times.exit44

.lr.ph.i:                                         ; preds = %.lr.ph.i.preheader, %61
  %.012.i = phi i32 [ %.1.i, %61 ], [ 0, %.lr.ph.i.preheader ]
  %.0611.i = phi i32 [ %62, %61 ], [ %56, %.lr.ph.i.preheader ]
  %.0710.i = phi ptr [ %63, %61 ], [ %4, %.lr.ph.i.preheader ]
  %57 = and i32 %.0611.i, 1
  %.not8.i = icmp eq i32 %57, 0
  br i1 %.not8.i, label %61, label %58

58:                                               ; preds = %.lr.ph.i
  %59 = load i32, ptr %.0710.i, align 4, !tbaa !14
  %60 = xor i32 %59, %.012.i
  br label %61

61:                                               ; preds = %58, %.lr.ph.i
  %.1.i = phi i32 [ %60, %58 ], [ %.012.i, %.lr.ph.i ]
  %62 = lshr i32 %.0611.i, 1
  %63 = getelementptr inbounds nuw i8, ptr %.0710.i, i64 4
  %.not.i14 = icmp samesign ult i32 %.0611.i, 2
  br i1 %.not.i14, label %gf2_matrix_times.exit, label %.lr.ph.i, !llvm.loop !39

gf2_matrix_times.exit:                            ; preds = %61
  %64 = getelementptr inbounds nuw [256 x i32], ptr %0, i64 0, i64 %indvars.iv
  store i32 %.1.i, ptr %64, align 4, !tbaa !14
  %indvars.iv.tr = trunc i64 %indvars.iv to i32
  %65 = shl i32 %indvars.iv.tr, 8
  br label %.lr.ph.i16

.lr.ph.i16:                                       ; preds = %gf2_matrix_times.exit, %70
  %.012.i17 = phi i32 [ %.1.i21, %70 ], [ 0, %gf2_matrix_times.exit ]
  %.0611.i18 = phi i32 [ %71, %70 ], [ %65, %gf2_matrix_times.exit ]
  %.0710.i19 = phi ptr [ %72, %70 ], [ %4, %gf2_matrix_times.exit ]
  %66 = and i32 %.0611.i18, 1
  %.not8.i20 = icmp eq i32 %66, 0
  br i1 %.not8.i20, label %70, label %67

67:                                               ; preds = %.lr.ph.i16
  %68 = load i32, ptr %.0710.i19, align 4, !tbaa !14
  %69 = xor i32 %68, %.012.i17
  br label %70

70:                                               ; preds = %67, %.lr.ph.i16
  %.1.i21 = phi i32 [ %69, %67 ], [ %.012.i17, %.lr.ph.i16 ]
  %71 = lshr i32 %.0611.i18, 1
  %72 = getelementptr inbounds nuw i8, ptr %.0710.i19, i64 4
  %.not.i22 = icmp samesign ult i32 %.0611.i18, 2
  br i1 %.not.i22, label %gf2_matrix_times.exit24, label %.lr.ph.i16, !llvm.loop !39

gf2_matrix_times.exit24:                          ; preds = %70
  %73 = getelementptr inbounds nuw [256 x i32], ptr %52, i64 0, i64 %indvars.iv
  store i32 %.1.i21, ptr %73, align 4, !tbaa !14
  %indvars.iv.tr53 = trunc i64 %indvars.iv to i32
  %74 = shl i32 %indvars.iv.tr53, 16
  br label %.lr.ph.i26

.lr.ph.i26:                                       ; preds = %gf2_matrix_times.exit24, %79
  %.012.i27 = phi i32 [ %.1.i31, %79 ], [ 0, %gf2_matrix_times.exit24 ]
  %.0611.i28 = phi i32 [ %80, %79 ], [ %74, %gf2_matrix_times.exit24 ]
  %.0710.i29 = phi ptr [ %81, %79 ], [ %4, %gf2_matrix_times.exit24 ]
  %75 = and i32 %.0611.i28, 1
  %.not8.i30 = icmp eq i32 %75, 0
  br i1 %.not8.i30, label %79, label %76

76:                                               ; preds = %.lr.ph.i26
  %77 = load i32, ptr %.0710.i29, align 4, !tbaa !14
  %78 = xor i32 %77, %.012.i27
  br label %79

79:                                               ; preds = %76, %.lr.ph.i26
  %.1.i31 = phi i32 [ %78, %76 ], [ %.012.i27, %.lr.ph.i26 ]
  %80 = lshr i32 %.0611.i28, 1
  %81 = getelementptr inbounds nuw i8, ptr %.0710.i29, i64 4
  %.not.i32 = icmp samesign ult i32 %.0611.i28, 2
  br i1 %.not.i32, label %gf2_matrix_times.exit34, label %.lr.ph.i26, !llvm.loop !39

gf2_matrix_times.exit34:                          ; preds = %79
  %82 = getelementptr inbounds nuw [256 x i32], ptr %53, i64 0, i64 %indvars.iv
  store i32 %.1.i31, ptr %82, align 4, !tbaa !14
  %indvars.iv.tr54 = trunc i64 %indvars.iv to i32
  %83 = shl i32 %indvars.iv.tr54, 24
  br label %.lr.ph.i36

.lr.ph.i36:                                       ; preds = %gf2_matrix_times.exit34, %88
  %.012.i37 = phi i32 [ %.1.i41, %88 ], [ 0, %gf2_matrix_times.exit34 ]
  %.0611.i38 = phi i32 [ %89, %88 ], [ %83, %gf2_matrix_times.exit34 ]
  %.0710.i39 = phi ptr [ %90, %88 ], [ %4, %gf2_matrix_times.exit34 ]
  %84 = and i32 %.0611.i38, 1
  %.not8.i40 = icmp eq i32 %84, 0
  br i1 %.not8.i40, label %88, label %85

85:                                               ; preds = %.lr.ph.i36
  %86 = load i32, ptr %.0710.i39, align 4, !tbaa !14
  %87 = xor i32 %86, %.012.i37
  br label %88

88:                                               ; preds = %85, %.lr.ph.i36
  %.1.i41 = phi i32 [ %87, %85 ], [ %.012.i37, %.lr.ph.i36 ]
  %89 = lshr i32 %.0611.i38, 1
  %90 = getelementptr inbounds nuw i8, ptr %.0710.i39, i64 4
  %.not.i42 = icmp ult i32 %.0611.i38, 2
  br i1 %.not.i42, label %gf2_matrix_times.exit44, label %.lr.ph.i36, !llvm.loop !39

gf2_matrix_times.exit44:                          ; preds = %88, %gf2_matrix_times.exit34.thread
  %.0.lcssa.i43 = phi i32 [ 0, %gf2_matrix_times.exit34.thread ], [ %.1.i41, %88 ]
  %91 = getelementptr inbounds nuw [256 x i32], ptr %51, i64 0, i64 %indvars.iv
  store i32 %.0.lcssa.i43, ptr %91, align 4, !tbaa !14
  %indvars.iv.next = add nuw nsw i64 %indvars.iv, 1
  %exitcond.not = icmp eq i64 %indvars.iv.next, 256
  br i1 %exitcond.not, label %54, label %55, !llvm.loop !43
}